target datalayout = "e-m:e-p270:32:32-p271:32:32-p272:64:64-i64:64-i128:128-f80:128-n8:16:32:64-S128"
target triple = "x86_64-pc-linux-gnu"

; Function Attrs: nounwind uwtable
define internal void @put_pixels_10(ptr noundef %0, ptr noundef %1, i64 noundef %2, i32 noundef %3, ptr noundef %4, ptr noundef %5, i32 noundef %6) #0 {
  %8 = alloca ptr, align 8
  %9 = alloca ptr, align 8
  %10 = alloca i64, align 8
  %11 = alloca i32, align 4
  %12 = alloca ptr, align 8
  %13 = alloca ptr, align 8
  %14 = alloca i32, align 4
  %15 = alloca ptr, align 8
  %16 = alloca i64, align 8
  %17 = alloca i32, align 4
  %18 = alloca i32, align 4
  %19 = alloca i32, align 4
  store ptr %0, ptr %8, align 8, !tbaa !142
  store ptr %1, ptr %9, align 8, !tbaa !144
  store i64 %2, ptr %10, align 8, !tbaa !146
  store i32 %3, ptr %11, align 4, !tbaa !9
  store ptr %4, ptr %12, align 8, !tbaa !144
  store ptr %5, ptr %13, align 8, !tbaa !144
  store i32 %6, ptr %14, align 4, !tbaa !9
  call void @llvm.lifetime.start.p0(i64 8, ptr %15) #8
  %20 = load ptr, ptr %9, align 8, !tbaa !144
  store ptr %20, ptr %15, align 8, !tbaa !142
  call void @llvm.lifetime.start.p0(i64 8, ptr %16) #8
  %21 = load i64, ptr %10, align 8, !tbaa !146
  %22 = udiv i64 %21, 2
  store i64 %22, ptr %16, align 8, !tbaa !146
  call void @llvm.lifetime.start.p0(i64 4, ptr %17) #8
  store i32 0, ptr %17, align 4, !tbaa !9
  br label %23

23:                                               ; preds = %56, %7
  %24 = load i32, ptr %17, align 4, !tbaa !9
  %25 = load i32, ptr %11, align 4, !tbaa !9
  %26 = icmp slt i32 %24, %25
  br i1 %26, label %28, label %27

27:                                               ; preds = %23
  store i32 2, ptr %18, align 4
  call void @llvm.lifetime.end.p0(i64 4, ptr %17) #8
  br label %59

28:                                               ; preds = %23
  call void @llvm.lifetime.start.p0(i64 4, ptr %19) #8
  store i32 0, ptr %19, align 4, !tbaa !9
  br label %29

29:                                               ; preds = %47, %28
  %30 = load i32, ptr %19, align 4, !tbaa !9
  %31 = load i32, ptr %14, align 4, !tbaa !9
  %32 = icmp slt i32 %30, %31
  br i1 %32, label %34, label %33

33:                                               ; preds = %29
  store i32 5, ptr %18, align 4
  call void @llvm.lifetime.end.p0(i64 4, ptr %19) #8
  br label %50

34:                                               ; preds = %29
  %35 = load ptr, ptr %15, align 8, !tbaa !142
  %36 = load i32, ptr %19, align 4, !tbaa !9
  %37 = sext i32 %36 to i64
  %38 = getelementptr inbounds i16, ptr %35, i64 %37
  %39 = load i16, ptr %38, align 2, !tbaa !148
  %40 = zext i16 %39 to i32
  %41 = shl i32 %40, 4
  %42 = trunc i32 %41 to i16
  %43 = load ptr, ptr %8, align 8, !tbaa !142
  %44 = load i32, ptr %19, align 4, !tbaa !9
  %45 = sext i32 %44 to i64
  %46 = getelementptr inbounds i16, ptr %43, i64 %45
  store i16 %42, ptr %46, align 2, !tbaa !148
  br label %47

47:                                               ; preds = %34
  %48 = load i32, ptr %19, align 4, !tbaa !9
  %49 = add nsw i32 %48, 1
  store i32 %49, ptr %19, align 4, !tbaa !9
  br label %29, !llvm.loop !477

50:                                               ; preds = %33
  %51 = load i64, ptr %16, align 8, !tbaa !146
  %52 = load ptr, ptr %15, align 8, !tbaa !142
  %53 = getelementptr inbounds i16, ptr %52, i64 %51
  store ptr %53, ptr %15, align 8, !tbaa !142
  %54 = load ptr, ptr %8, align 8, !tbaa !142
  %55 = getelementptr inbounds i16, ptr %54, i64 128
  store ptr %55, ptr %8, align 8, !tbaa !142
  br label %56

56:                                               ; preds = %50
  %57 = load i32, ptr %17, align 4, !tbaa !9
  %58 = add nsw i32 %57, 1
  store i32 %58, ptr %17, align 4, !tbaa !9
  br label %23, !llvm.loop !478

59:                                               ; preds = %27
  call void @llvm.lifetime.end.p0(i64 8, ptr %16) #8
  call void @llvm.lifetime.end.p0(i64 8, ptr %15) #8
  ret void
}