; Function Attrs: nofree norecurse nosync nounwind memory(argmem: readwrite) uwtable
define internal void @put_pixels_10(ptr noundef writeonly captures(none) %0, ptr noundef readonly captures(none) %1, i64 noundef %2, i32 noundef %3, ptr readnone captures(none) %4, ptr readnone captures(none) %5, i32 noundef %6) #2 {
  %8 = lshr i64 %2, 1
  %9 = icmp sgt i32 %3, 0
  %10 = icmp sgt i32 %6, 0
  %or.cond = and i1 %9, %10
  br i1 %or.cond, label %.preheader.us.preheader, label %._crit_edge21

.preheader.us.preheader:                          ; preds = %7
  %wide.trip.count = zext nneg i32 %6 to i64
  br label %.preheader.us

.preheader.us:                                    ; preds = %.preheader.us.preheader, %._crit_edge.us
  %.01420.us = phi i32 [ %18, %._crit_edge.us ], [ 0, %.preheader.us.preheader ]
  %.01519.us = phi ptr [ %17, %._crit_edge.us ], [ %0, %.preheader.us.preheader ]
  %.01618.us = phi ptr [ %16, %._crit_edge.us ], [ %1, %.preheader.us.preheader ]
  br label %11

11:                                               ; preds = %.preheader.us, %11
  %indvars.iv = phi i64 [ 0, %.preheader.us ], [ %indvars.iv.next, %11 ]
  %12 = getelementptr inbounds nuw i16, ptr %.01618.us, i64 %indvars.iv
  %13 = load i16, ptr %12, align 2, !tbaa !124
  %14 = shl i16 %13, 4
  %15 = getelementptr inbounds nuw i16, ptr %.01519.us, i64 %indvars.iv
  store i16 %14, ptr %15, align 2, !tbaa !124
  %indvars.iv.next = add nuw nsw i64 %indvars.iv, 1
  %exitcond.not = icmp eq i64 %indvars.iv.next, %wide.trip.count
  br i1 %exitcond.not, label %._crit_edge.us, label %11, !llvm.loop !442

._crit_edge.us:                                   ; preds = %11
  %16 = getelementptr inbounds nuw i16, ptr %.01618.us, i64 %8
  %17 = getelementptr inbounds nuw i8, ptr %.01519.us, i64 256
  %18 = add nuw nsw i32 %.01420.us, 1
  %exitcond24.not = icmp eq i32 %18, %3
  br i1 %exitcond24.not, label %._crit_edge21, label %.preheader.us, !llvm.loop !443

._crit_edge21:                                    ; preds = %._crit_edge.us, %7
  ret void
}